target datalayout = "e-m:e-p270:32:32-p271:32:32-p272:64:64-i64:64-i128:128-f80:128-n8:16:32:64-S128"
target triple = "x86_64-pc-linux-gnu"

%union.SourceSpan = type { i64 }
%union.anon.2 = type { ptr }
%union.anon.3 = type { i16 }
%union.anon.4 = type { %struct.FuncDecl }
%struct.FuncDecl = type { i32, [4 x i8], %struct.Signature_, i32, i32, %union.anon.11 }
%struct.Signature_ = type <{ %struct.CalleeAttributes, i16, i8, i32, i32, [4 x i8], ptr }>
%struct.CalleeAttributes = type { i8 }
%union.anon.11 = type { %struct.anon.12 }
%struct.anon.12 = type { i16, %union.anon.13 }
%union.anon.13 = type { ptr }
%struct.Decl_ = type { ptr, ptr, %union.SourceSpan, i64, %union.anon.2, i32, %union.anon.3, i64, ptr, ptr, ptr, %union.anon.4 }

; Function Attrs: nounwind uwtable
define dso_local zeroext i1 @decl_is_ct_var(ptr noundef %0) #0 {
  %2 = alloca i32, align 4
  %3 = alloca i1, align 1
  %4 = alloca ptr, align 8
  store ptr %0, ptr %4, align 8
  %5 = load ptr, ptr %4, align 8
  %6 = getelementptr inbounds %struct.Decl_, ptr %5, i32 0, i32 3
  %7 = load i64, ptr %6, align 8
  %8 = and i64 %7, 127
  %9 = trunc i64 %8 to i32
  %10 = icmp ne i32 %9, 26
  br i1 %10, label %11, label %12

11:                                               ; preds = %1
  store i1 false, ptr %3, align 1
  br label %24

12:                                               ; preds = %1
  %13 = load ptr, ptr %4, align 8
  %14 = getelementptr inbounds %struct.Decl_, ptr %13, i32 0, i32 11
  %15 = load i32, ptr %14, align 8
  %16 = and i32 %15, 255
  store i32 %16, ptr %2, align 4
  %17 = load i32, ptr %2, align 4
  %18 = icmp uge i32 %17, 11
  br i1 %18, label %19, label %22

19:                                               ; preds = %12
  %20 = load i32, ptr %2, align 4
  %21 = icmp ule i32 %20, 14
  br label %22

22:                                               ; preds = %19, %12
  %23 = phi i1 [ false, %12 ], [ %21, %19 ]
  store i1 %23, ptr %3, align 1
  br label %24

24:                                               ; preds = %22, %11
  %25 = load i1, ptr %3, align 1
  ret i1 %25
}