; Function Attrs: mustprogress nofree norecurse nosync nounwind willreturn memory(argmem: read) uwtable
define dso_local zeroext i1 @decl_is_ct_var(ptr nocapture noundef readonly %0) local_unnamed_addr #1 {
  %2 = getelementptr inbounds i8, ptr %0, i64 24
  %3 = load i64, ptr %2, align 8
  %4 = and i64 %3, 127
  %.not = icmp eq i64 %4, 26
  br i1 %.not, label %5, label %11

5:                                                ; preds = %1
  %6 = getelementptr inbounds i8, ptr %0, i64 80
  %7 = load i32, ptr %6, align 8
  %8 = and i32 %7, 255
  %9 = add nsw i32 %8, -11
  %10 = icmp ult i32 %9, 4
  br label %11

11:                                               ; preds = %1, %5
  %.0 = phi i1 [ %10, %5 ], [ false, %1 ]
  ret i1 %.0
}